target datalayout = "e-m:e-p270:32:32-p271:32:32-p272:64:64-i64:64-i128:128-f80:128-n8:16:32:64-S128"
target triple = "x86_64-unknown-linux-gnu"

; Function Attrs: mustprogress uwtable
define dso_local noundef ptr @_ZN4base24DeserializeHistogramInfoEPNS_14PickleIteratorE(ptr noundef %iter) #0 {
entry:
  %retval = alloca ptr, align 8
  %iter.addr = alloca ptr, align 8
  %type = alloca i32, align 4
  store ptr %iter, ptr %iter.addr, align 8
  %0 = load ptr, ptr %iter.addr, align 8
  %call = call noundef zeroext i1 @_ZN4base14PickleIterator7ReadIntEPi(ptr noundef nonnull align 8 dereferenceable(24) %0, ptr noundef %type)
  br i1 %call, label %if.end, label %if.then

if.then:                                          ; preds = %entry
  store ptr null, ptr %retval, align 8
  br label %return

if.end:                                           ; preds = %entry
  %1 = load i32, ptr %type, align 4
  switch i32 %1, label %sw.default [
    i32 0, label %sw.bb
    i32 1, label %sw.bb2
    i32 2, label %sw.bb4
    i32 3, label %sw.bb6
    i32 4, label %sw.bb8
  ]

sw.bb:                                            ; preds = %if.end
  %2 = load ptr, ptr %iter.addr, align 8
  %call1 = call noundef ptr @_ZN4base9Histogram19DeserializeInfoImplEPNS_14PickleIteratorE(ptr noundef %2)
  store ptr %call1, ptr %retval, align 8
  br label %return

sw.bb2:                                           ; preds = %if.end
  %3 = load ptr, ptr %iter.addr, align 8
  %call3 = call noundef ptr @_ZN4base15LinearHistogram19DeserializeInfoImplEPNS_14PickleIteratorE(ptr noundef %3)
  store ptr %call3, ptr %retval, align 8
  br label %return

sw.bb4:                                           ; preds = %if.end
  %4 = load ptr, ptr %iter.addr, align 8
  %call5 = call noundef ptr @_ZN4base16BooleanHistogram19DeserializeInfoImplEPNS_14PickleIteratorE(ptr noundef %4)
  store ptr %call5, ptr %retval, align 8
  br label %return

sw.bb6:                                           ; preds = %if.end
  %5 = load ptr, ptr %iter.addr, align 8
  %call7 = call noundef ptr @_ZN4base15CustomHistogram19DeserializeInfoImplEPNS_14PickleIteratorE(ptr noundef %5)
  store ptr %call7, ptr %retval, align 8
  br label %return

sw.bb8:                                           ; preds = %if.end
  %6 = load ptr, ptr %iter.addr, align 8
  %call9 = call noundef ptr @_ZN4base15SparseHistogram19DeserializeInfoImplEPNS_14PickleIteratorE(ptr noundef %6)
  store ptr %call9, ptr %retval, align 8
  br label %return

sw.default:                                       ; preds = %if.end
  store ptr null, ptr %retval, align 8
  br label %return

return:                                           ; preds = %sw.default, %sw.bb8, %sw.bb6, %sw.bb4, %sw.bb2, %sw.bb, %if.then
  %7 = load ptr, ptr %retval, align 8
  ret ptr %7
}