; Function Attrs: mustprogress uwtable
define dso_local noundef ptr @_ZN4base24DeserializeHistogramInfoEPNS_14PickleIteratorE(ptr noundef nonnull %iter) local_unnamed_addr #0 {
entry:
  %type = alloca i32, align 4
  %call = call noundef zeroext i1 @_ZN4base14PickleIterator7ReadIntEPi(ptr noundef nonnull align 8 dereferenceable(24) %iter, ptr noundef nonnull %type)
  br i1 %call, label %if.end, label %return

if.end:                                           ; preds = %entry
  %0 = load i32, ptr %type, align 4
  switch i32 %0, label %return [
    i32 0, label %sw.bb
    i32 1, label %sw.bb2
    i32 2, label %sw.bb4
    i32 3, label %sw.bb6
    i32 4, label %sw.bb8
  ]

sw.bb:                                            ; preds = %if.end
  %call1 = call noundef ptr @_ZN4base9Histogram19DeserializeInfoImplEPNS_14PickleIteratorE(ptr noundef nonnull %iter)
  br label %return

sw.bb2:                                           ; preds = %if.end
  %call3 = call noundef ptr @_ZN4base15LinearHistogram19DeserializeInfoImplEPNS_14PickleIteratorE(ptr noundef nonnull %iter)
  br label %return

sw.bb4:                                           ; preds = %if.end
  %call5 = call noundef ptr @_ZN4base16BooleanHistogram19DeserializeInfoImplEPNS_14PickleIteratorE(ptr noundef nonnull %iter)
  br label %return

sw.bb6:                                           ; preds = %if.end
  %call7 = call noundef ptr @_ZN4base15CustomHistogram19DeserializeInfoImplEPNS_14PickleIteratorE(ptr noundef nonnull %iter)
  br label %return

sw.bb8:                                           ; preds = %if.end
  %call9 = call noundef ptr @_ZN4base15SparseHistogram19DeserializeInfoImplEPNS_14PickleIteratorE(ptr noundef nonnull %iter)
  br label %return

return:                                           ; preds = %if.end, %entry, %sw.bb8, %sw.bb6, %sw.bb4, %sw.bb2, %sw.bb
  %retval.0 = phi ptr [ %call9, %sw.bb8 ], [ %call7, %sw.bb6 ], [ %call5, %sw.bb4 ], [ %call3, %sw.bb2 ], [ %call1, %sw.bb ], [ null, %entry ], [ null, %if.end ]
  ret ptr %retval.0
}